target datalayout = "e-m:e-p270:32:32-p271:32:32-p272:64:64-i64:64-i128:128-f80:128-n8:16:32:64-S128"
target triple = "x86_64-pc-linux-gnu"

%struct.png_XYZ = type { i32, i32, i32, i32, i32, i32, i32, i32, i32 }
%struct.png_xy = type { i32, i32, i32, i32, i32, i32, i32, i32 }
%struct.png_struct_def = type { [1 x %struct.__jmp_buf_tag], ptr, ptr, i64, ptr, ptr, ptr, ptr, ptr, ptr, ptr, ptr, ptr, i8, i8, i32, i32, i32, i32, %struct.z_stream_s, ptr, i32, i32, i32, i32, i32, i32, i32, i32, i32, i32, i32, i32, i32, i32, i32, i32, i32, i32, i32, i32, i64, i32, i32, i32, ptr, ptr, ptr, ptr, i64, i32, i32, ptr, i16, i32, i16, i8, i8, i8, i8, i8, i8, i8, i8, i8, i8, i8, i8, i8, i8, i8, i16, i8, i32, %struct.png_color_16_struct, %struct.png_color_16_struct, ptr, i32, i32, i32, i32, ptr, ptr, ptr, ptr, ptr, ptr, %struct.png_color_8_struct, %struct.png_color_8_struct, ptr, %struct.png_color_16_struct, ptr, ptr, ptr, ptr, ptr, ptr, ptr, ptr, ptr, i32, i32, i64, i64, i64, i64, i32, i32, ptr, ptr, i32, [29 x i8], i32, ptr, ptr, i32, i32, ptr, i8, i8, i16, i16, ptr, i32, i8, ptr, ptr, ptr, ptr, ptr, ptr, ptr, i8, i32, i32, i32, i64, %struct.png_unknown_chunk_t, i64, ptr, i64, i32, i32, ptr, [4 x ptr], %struct.png_colorspace }
%struct.__jmp_buf_tag = type { [8 x i64], i32, %struct.__sigset_t }
%struct.__sigset_t = type { [16 x i64] }
%struct.z_stream_s = type { ptr, i32, i64, ptr, i32, i64, ptr, ptr, ptr, ptr, ptr, i32, i64, i64 }
%struct.png_color_8_struct = type { i8, i8, i8, i8, i8 }
%struct.png_color_16_struct = type { i8, i16, i16, i16, i16 }
%struct.png_unknown_chunk_t = type { [5 x i8], ptr, i64, i8 }
%struct.png_colorspace = type { i32, %struct.png_xy, %struct.png_XYZ, i16, i16 }

; Function Attrs: nounwind uwtable
define i32 @png_set_option(ptr noalias noundef %0, i32 noundef %1, i32 noundef %2) #0 {
  %4 = alloca i32, align 4
  %5 = alloca ptr, align 8
  %6 = alloca i32, align 4
  %7 = alloca i32, align 4
  %8 = alloca i32, align 4
  %9 = alloca i32, align 4
  %10 = alloca i32, align 4
  store ptr %0, ptr %5, align 8
  store i32 %1, ptr %6, align 4
  store i32 %2, ptr %7, align 4
  %11 = load ptr, ptr %5, align 8
  %12 = icmp ne ptr %11, null
  br i1 %12, label %13, label %48

13:                                               ; preds = %3
  %14 = load i32, ptr %6, align 4
  %15 = icmp sge i32 %14, 0
  br i1 %15, label %16, label %48

16:                                               ; preds = %13
  %17 = load i32, ptr %6, align 4
  %18 = icmp slt i32 %17, 14
  br i1 %18, label %19, label %48

19:                                               ; preds = %16
  %20 = load i32, ptr %6, align 4
  %21 = and i32 %20, 1
  %22 = icmp eq i32 %21, 0
  br i1 %22, label %23, label %48

23:                                               ; preds = %19
  %24 = load i32, ptr %6, align 4
  %25 = shl i32 3, %24
  store i32 %25, ptr %8, align 4
  %26 = load i32, ptr %7, align 4
  %27 = icmp ne i32 %26, 0
  %28 = zext i1 %27 to i32
  %29 = add i32 2, %28
  %30 = load i32, ptr %6, align 4
  %31 = shl i32 %29, %30
  store i32 %31, ptr %9, align 4
  %32 = load ptr, ptr %5, align 8
  %33 = getelementptr inbounds %struct.png_struct_def, ptr %32, i32 0, i32 110
  %34 = load i32, ptr %33, align 8
  store i32 %34, ptr %10, align 4
  %35 = load i32, ptr %10, align 4
  %36 = load i32, ptr %8, align 4
  %37 = xor i32 %36, -1
  %38 = and i32 %35, %37
  %39 = load i32, ptr %9, align 4
  %40 = or i32 %38, %39
  %41 = load ptr, ptr %5, align 8
  %42 = getelementptr inbounds %struct.png_struct_def, ptr %41, i32 0, i32 110
  store i32 %40, ptr %42, align 8
  %43 = load i32, ptr %10, align 4
  %44 = load i32, ptr %8, align 4
  %45 = and i32 %43, %44
  %46 = load i32, ptr %6, align 4
  %47 = ashr i32 %45, %46
  store i32 %47, ptr %4, align 4
  br label %49

48:                                               ; preds = %19, %16, %13, %3
  store i32 1, ptr %4, align 4
  br label %49

49:                                               ; preds = %48, %23
  %50 = load i32, ptr %4, align 4
  ret i32 %50
}