; Function Attrs: mustprogress nofree norecurse nosync nounwind willreturn memory(argmem: readwrite) uwtable
define range(i32 0, 24577) i32 @png_set_option(ptr noalias noundef %0, i32 noundef %1, i32 noundef %2) local_unnamed_addr #15 {
  %4 = icmp ne ptr %0, null
  %5 = icmp ult i32 %1, 14
  %or.cond3 = and i1 %4, %5
  %6 = and i32 %1, 1
  %7 = icmp eq i32 %6, 0
  %or.cond = and i1 %or.cond3, %7
  br i1 %or.cond, label %8, label %19

8:                                                ; preds = %3
  %9 = shl nuw nsw i32 3, %1
  %.not = icmp eq i32 %2, 0
  %10 = select i1 %.not, i32 2, i32 3
  %11 = shl nuw nsw i32 %10, %1
  %12 = getelementptr inbounds i8, ptr %0, i64 904
  %13 = load i32, ptr %12, align 8
  %14 = xor i32 %9, -1
  %15 = and i32 %13, %14
  %16 = or i32 %15, %11
  store i32 %16, ptr %12, align 8
  %17 = lshr i32 %13, %1
  %18 = and i32 %17, 3
  br label %19

19:                                               ; preds = %3, %8
  %.0 = phi i32 [ %18, %8 ], [ 1, %3 ]
  ret i32 %.0
}